target datalayout = "e-m:e-p270:32:32-p271:32:32-p272:64:64-i64:64-i128:128-f80:128-n8:16:32:64-S128"
target triple = "x86_64-pc-linux-gnu"

%"class.net::QuicData" = type <{ ptr, ptr, i64, i8, [7 x i8] }>

@_ZTVN3net8QuicDataE = unnamed_addr constant { [4 x ptr] } { [4 x ptr] [ptr null, ptr @_ZTIN3net8QuicDataE, ptr @_ZN3net8QuicDataD1Ev, ptr @_ZN3net8QuicDataD0Ev] }, align 8
@_ZTVN3net19QuicEncryptedPacketE = linkonce_odr unnamed_addr constant { [4 x ptr] } { [4 x ptr] [ptr null, ptr @_ZTIN3net19QuicEncryptedPacketE, ptr @_ZN3net8QuicDataD2Ev, ptr @_ZN3net19QuicEncryptedPacketD0Ev] }, comdat, align 8

; Function Attrs: mustprogress nounwind uwtable
define void @_ZN3net8QuicDataC2EPKcmb(ptr noundef nonnull align 8 dereferenceable(25) %0, ptr noundef %1, i64 noundef %2, i1 noundef zeroext %3) unnamed_addr #1 align 2 {
  %5 = alloca ptr, align 8
  %6 = alloca ptr, align 8
  %7 = alloca i64, align 8
  %8 = alloca i8, align 1
  store ptr %0, ptr %5, align 8, !tbaa !257
  store ptr %1, ptr %6, align 8, !tbaa !66
  store i64 %2, ptr %7, align 8, !tbaa !71
  %9 = zext i1 %3 to i8
  store i8 %9, ptr %8, align 1, !tbaa !29
  %10 = load ptr, ptr %5, align 8
  store ptr getelementptr inbounds inrange(-16, 16) ({ [4 x ptr] }, ptr @_ZTVN3net8QuicDataE, i32 0, i32 0, i32 2), ptr %10, align 8, !tbaa !69
  %11 = getelementptr inbounds nuw %"class.net::QuicData", ptr %10, i32 0, i32 1
  %12 = load ptr, ptr %6, align 8, !tbaa !66
  store ptr %12, ptr %11, align 8, !tbaa !259
  %13 = getelementptr inbounds nuw %"class.net::QuicData", ptr %10, i32 0, i32 2
  %14 = load i64, ptr %7, align 8, !tbaa !71
  store i64 %14, ptr %13, align 8, !tbaa !261
  %15 = getelementptr inbounds nuw %"class.net::QuicData", ptr %10, i32 0, i32 3
  %16 = load i8, ptr %8, align 1, !tbaa !29, !range !23, !noundef !24
  %17 = trunc i8 %16 to i1
  %18 = zext i1 %17 to i8
  store i8 %18, ptr %15, align 8, !tbaa !262
  ret void
}

; Function Attrs: mustprogress nounwind uwtable
define void @_ZN3net19QuicEncryptedPacketC2EPKcmb(ptr noundef nonnull align 8 dereferenceable(25) %0, ptr noundef %1, i64 noundef %2, i1 noundef zeroext %3) unnamed_addr #1 align 2 {
  %5 = alloca ptr, align 8
  %6 = alloca ptr, align 8
  %7 = alloca i64, align 8
  %8 = alloca i8, align 1
  store ptr %0, ptr %5, align 8, !tbaa !272
  store ptr %1, ptr %6, align 8, !tbaa !66
  store i64 %2, ptr %7, align 8, !tbaa !71
  %9 = zext i1 %3 to i8
  store i8 %9, ptr %8, align 1, !tbaa !29
  %10 = load ptr, ptr %5, align 8
  %11 = load ptr, ptr %6, align 8, !tbaa !66
  %12 = load i64, ptr %7, align 8, !tbaa !71
  %13 = load i8, ptr %8, align 1, !tbaa !29, !range !23, !noundef !24
  %14 = trunc i8 %13 to i1
  call void @_ZN3net8QuicDataC2EPKcmb(ptr noundef nonnull align 8 dereferenceable(25) %10, ptr noundef %11, i64 noundef %12, i1 noundef zeroext %14)
  store ptr getelementptr inbounds inrange(-16, 16) ({ [4 x ptr] }, ptr @_ZTVN3net19QuicEncryptedPacketE, i32 0, i32 0, i32 2), ptr %10, align 8, !tbaa !69
  ret void
}