; Function Attrs: mustprogress nofree norecurse nosync nounwind willreturn memory(argmem: write) uwtable
define void @_ZN3net19QuicEncryptedPacketC2EPKcmb(ptr noundef nonnull writeonly align 8 captures(none) dereferenceable(25) initializes((0, 25)) %0, ptr noundef %1, i64 noundef %2, i1 noundef zeroext %3) unnamed_addr #2 align 2 {
  %5 = zext i1 %3 to i8
  %6 = getelementptr inbounds nuw i8, ptr %0, i64 8
  store ptr %1, ptr %6, align 8, !tbaa !204
  %7 = getelementptr inbounds nuw i8, ptr %0, i64 16
  store i64 %2, ptr %7, align 8, !tbaa !206
  %8 = getelementptr inbounds nuw i8, ptr %0, i64 24
  store i8 %5, ptr %8, align 8, !tbaa !207
  store ptr getelementptr inbounds nuw inrange(-16, 16) (i8, ptr @_ZTVN3net19QuicEncryptedPacketE, i64 16), ptr %0, align 8, !tbaa !39
  ret void
}